target datalayout = "e-m:e-p270:32:32-p271:32:32-p272:64:64-i64:64-i128:128-f80:128-n8:16:32:64-S128"
target triple = "x86_64-pc-linux-gnu"

%struct.asn1_int_oct = type { i32, ptr }
%struct.asn1_string_st = type { i32, i32, ptr, i64 }

@asn1_int_oct_it.local_it = internal constant { i8, [7 x i8], i64, ptr, i64, ptr, i64, ptr } { i8 1, [7 x i8] zeroinitializer, i64 16, ptr @asn1_int_oct_seq_tt, i64 2, ptr null, i64 16, ptr @.str.1 }, align 8

; Function Attrs: nounwind uwtable
define internal ptr @asn1_int_oct_it() #0 {
  ret ptr @asn1_int_oct_it.local_it
}

; Function Attrs: inlinehint nounwind uwtable
define internal void @asn1_type_init_oct(ptr noundef %0, ptr noundef %1, i32 noundef %2) #4 {
  %4 = alloca ptr, align 8
  %5 = alloca ptr, align 8
  %6 = alloca i32, align 4
  store ptr %0, ptr %4, align 8, !tbaa !12
  store ptr %1, ptr %5, align 8, !tbaa !8
  store i32 %2, ptr %6, align 4, !tbaa !10
  %7 = load ptr, ptr %5, align 8, !tbaa !8
  %8 = load ptr, ptr %4, align 8, !tbaa !12
  %9 = getelementptr inbounds nuw %struct.asn1_string_st, ptr %8, i32 0, i32 2
  store ptr %7, ptr %9, align 8, !tbaa !22
  %10 = load ptr, ptr %4, align 8, !tbaa !12
  %11 = getelementptr inbounds nuw %struct.asn1_string_st, ptr %10, i32 0, i32 1
  store i32 4, ptr %11, align 4, !tbaa !24
  %12 = load i32, ptr %6, align 4, !tbaa !10
  %13 = load ptr, ptr %4, align 8, !tbaa !12
  %14 = getelementptr inbounds nuw %struct.asn1_string_st, ptr %13, i32 0, i32 0
  store i32 %12, ptr %14, align 8, !tbaa !25
  %15 = load ptr, ptr %4, align 8, !tbaa !12
  %16 = getelementptr inbounds nuw %struct.asn1_string_st, ptr %15, i32 0, i32 3
  store i64 0, ptr %16, align 8, !tbaa !26
  ret void
}

; Function Attrs: nounwind uwtable
define i32 @ASN1_TYPE_set_int_octetstring(ptr noundef %0, i64 noundef %1, ptr noundef %2, i32 noundef %3) #0 {
  %5 = alloca i32, align 4
  %6 = alloca ptr, align 8
  %7 = alloca i64, align 8
  %8 = alloca ptr, align 8
  %9 = alloca i32, align 4
  %10 = alloca %struct.asn1_int_oct, align 8
  %11 = alloca %struct.asn1_string_st, align 8
  %12 = alloca i32, align 4
  store ptr %0, ptr %6, align 8, !tbaa !3
  store i64 %1, ptr %7, align 8, !tbaa !17
  store ptr %2, ptr %8, align 8, !tbaa !8
  store i32 %3, ptr %9, align 4, !tbaa !10
  call void @llvm.lifetime.start.p0(i64 16, ptr %10) #5
  call void @llvm.lifetime.start.p0(i64 24, ptr %11) #5
  %13 = load i64, ptr %7, align 8, !tbaa !17
  %14 = trunc i64 %13 to i32
  %15 = getelementptr inbounds nuw %struct.asn1_int_oct, ptr %10, i32 0, i32 0
  store i32 %14, ptr %15, align 8, !tbaa !19
  %16 = getelementptr inbounds nuw %struct.asn1_int_oct, ptr %10, i32 0, i32 1
  store ptr %11, ptr %16, align 8, !tbaa !21
  %17 = load ptr, ptr %8, align 8, !tbaa !8
  %18 = load i32, ptr %9, align 4, !tbaa !10
  call void @asn1_type_init_oct(ptr noundef %11, ptr noundef %17, i32 noundef %18)
  %19 = call ptr @asn1_int_oct_it()
  %20 = call ptr @ASN1_TYPE_pack_sequence(ptr noundef %19, ptr noundef %10, ptr noundef %6)
  %21 = icmp ne ptr %20, null
  br i1 %21, label %22, label %23

22:                                               ; preds = %4
  store i32 1, ptr %5, align 4
  store i32 1, ptr %12, align 4
  br label %24

23:                                               ; preds = %4
  store i32 0, ptr %5, align 4
  store i32 1, ptr %12, align 4
  br label %24

24:                                               ; preds = %23, %22
  call void @llvm.lifetime.end.p0(i64 24, ptr %11) #5
  call void @llvm.lifetime.end.p0(i64 16, ptr %10) #5
  %25 = load i32, ptr %5, align 4
  ret i32 %25
}